; Function Attrs: mustprogress nofree norecurse nosync nounwind willreturn memory(argmem: readwrite) uwtable
define void @_ZN8QuantLib35RendistatoEquivalentSwapLengthQuoteC1EN5boost10shared_ptrINS_20RendistatoCalculatorEEE(ptr noundef nonnull align 8 dereferenceable(24) %this, ptr nocapture noundef %r) unnamed_addr #14 align 2 personality ptr @__gxx_personality_v0 {
entry:
  %0 = getelementptr inbounds i8, ptr %this, i64 24
  %1 = getelementptr inbounds i8, ptr %this, i64 40
  store i32 0, ptr %1, align 8, !tbaa !8
  %_M_parent.i.i.i.i.i.i = getelementptr inbounds i8, ptr %this, i64 48
  store ptr null, ptr %_M_parent.i.i.i.i.i.i, align 8, !tbaa !13
  %_M_left.i.i.i.i.i.i = getelementptr inbounds i8, ptr %this, i64 56
  store ptr %1, ptr %_M_left.i.i.i.i.i.i, align 8, !tbaa !14
  %_M_right.i.i.i.i.i.i = getelementptr inbounds i8, ptr %this, i64 64
  store ptr %1, ptr %_M_right.i.i.i.i.i.i, align 8, !tbaa !15
  %_M_node_count.i.i.i.i.i.i = getelementptr inbounds i8, ptr %this, i64 72
  store i64 0, ptr %_M_node_count.i.i.i.i.i.i, align 8, !tbaa !16
  store ptr getelementptr inbounds inrange(-24, 32) (i8, ptr @_ZTVN8QuantLib35RendistatoEquivalentSwapLengthQuoteE, i64 24), ptr %this, align 8, !tbaa !33
  store ptr getelementptr inbounds inrange(-24, 16) (i8, ptr @_ZTVN8QuantLib35RendistatoEquivalentSwapLengthQuoteE, i64 80), ptr %0, align 8, !tbaa !33
  %r_ = getelementptr inbounds nuw i8, ptr %this, i64 8
  %2 = load ptr, ptr %r, align 8, !tbaa !57
  store ptr %2, ptr %r_, align 8, !tbaa !57
  %pn.i = getelementptr inbounds nuw i8, ptr %this, i64 16
  %pn3.i = getelementptr inbounds nuw i8, ptr %r, i64 8
  %3 = load ptr, ptr %pn3.i, align 8, !tbaa !49
  store ptr %3, ptr %pn.i, align 8, !tbaa !49
  tail call void @llvm.memset.p0.i64(ptr noundef nonnull align 8 dereferenceable(16) %r, i8 0, i64 16, i1 false)
  ret void
}